target datalayout = "e-m:e-p270:32:32-p271:32:32-p272:64:64-i64:64-i128:128-f80:128-n8:16:32:64-S128"
target triple = "x86_64-pc-linux-gnu"

@scale_factor_mult = internal global [15 x [3 x i32]] zeroinitializer, align 16
@is_table_lsf = internal global [2 x [2 x [16 x i32]]] zeroinitializer, align 16

; Function Attrs: cold nounwind optsize uwtable
define internal void @decode_init_static() #0 {
  %1 = alloca i32, align 4
  %2 = alloca i32, align 4
  %3 = alloca i32, align 4
  %4 = alloca i32, align 4
  %5 = alloca double, align 8
  %6 = alloca i32, align 4
  %7 = alloca i32, align 4
  call void @llvm.lifetime.start.p0(i64 4, ptr %1) #13
  call void @llvm.lifetime.start.p0(i64 4, ptr %2) #13
  store i32 0, ptr %1, align 4, !tbaa !50
  br label %8

8:                                                ; preds = %54, %0
  %9 = load i32, ptr %1, align 4, !tbaa !50
  %10 = icmp slt i32 %9, 15
  br i1 %10, label %11, label %57

11:                                               ; preds = %8
  call void @llvm.lifetime.start.p0(i64 4, ptr %3) #13
  call void @llvm.lifetime.start.p0(i64 4, ptr %4) #13
  %12 = load i32, ptr %1, align 4, !tbaa !50
  %13 = add nsw i32 %12, 2
  store i32 %13, ptr %3, align 4, !tbaa !50
  %14 = load i32, ptr %3, align 4, !tbaa !50
  %15 = zext i32 %14 to i64
  %16 = shl i64 1, %15
  %17 = mul nsw i64 %16, 8388608
  %18 = load i32, ptr %3, align 4, !tbaa !50
  %19 = shl i32 1, %18
  %20 = sub nsw i32 %19, 1
  %21 = sext i32 %20 to i64
  %22 = sdiv i64 %17, %21
  %23 = trunc i64 %22 to i32
  store i32 %23, ptr %4, align 4, !tbaa !50
  %24 = load i32, ptr %4, align 4, !tbaa !50
  %25 = sext i32 %24 to i64
  %26 = mul nsw i64 %25, 16777216
  %27 = ashr i64 %26, 23
  %28 = trunc i64 %27 to i32
  %29 = load i32, ptr %1, align 4, !tbaa !50
  %30 = sext i32 %29 to i64
  %31 = getelementptr inbounds [15 x [3 x i32]], ptr @scale_factor_mult, i64 0, i64 %30
  %32 = getelementptr inbounds [3 x i32], ptr %31, i64 0, i64 0
  store i32 %28, ptr %32, align 4, !tbaa !50
  %33 = load i32, ptr %4, align 4, !tbaa !50
  %34 = sext i32 %33 to i64
  %35 = mul nsw i64 %34, 13316085
  %36 = ashr i64 %35, 23
  %37 = trunc i64 %36 to i32
  %38 = load i32, ptr %1, align 4, !tbaa !50
  %39 = sext i32 %38 to i64
  %40 = getelementptr inbounds [15 x [3 x i32]], ptr @scale_factor_mult, i64 0, i64 %39
  %41 = getelementptr inbounds [3 x i32], ptr %40, i64 0, i64 1
  store i32 %37, ptr %41, align 4, !tbaa !50
  %42 = load i32, ptr %4, align 4, !tbaa !50
  %43 = sext i32 %42 to i64
  %44 = mul nsw i64 %43, 10568984
  %45 = ashr i64 %44, 23
  %46 = trunc i64 %45 to i32
  %47 = load i32, ptr %1, align 4, !tbaa !50
  %48 = sext i32 %47 to i64
  %49 = getelementptr inbounds [15 x [3 x i32]], ptr @scale_factor_mult, i64 0, i64 %48
  %50 = getelementptr inbounds [3 x i32], ptr %49, i64 0, i64 2
  store i32 %46, ptr %50, align 4, !tbaa !50
  br label %51

51:                                               ; preds = %11
  br label %52

52:                                               ; preds = %51
  br label %53

53:                                               ; preds = %52
  call void @llvm.lifetime.end.p0(i64 4, ptr %4) #13
  call void @llvm.lifetime.end.p0(i64 4, ptr %3) #13
  br label %54

54:                                               ; preds = %53
  %55 = load i32, ptr %1, align 4, !tbaa !50
  %56 = add nsw i32 %55, 1
  store i32 %56, ptr %1, align 4, !tbaa !50
  br label %8, !llvm.loop !96

57:                                               ; preds = %8
  call void @mpegaudio_tableinit() #15
  store i32 0, ptr %1, align 4, !tbaa !50
  br label %58

58:                                               ; preds = %108, %57
  %59 = load i32, ptr %1, align 4, !tbaa !50
  %60 = icmp slt i32 %59, 16
  br i1 %60, label %61, label %111

61:                                               ; preds = %58
  call void @llvm.lifetime.start.p0(i64 8, ptr %5) #13
  call void @llvm.lifetime.start.p0(i64 4, ptr %6) #13
  call void @llvm.lifetime.start.p0(i64 4, ptr %7) #13
  store i32 0, ptr %2, align 4, !tbaa !50
  br label %62

62:                                               ; preds = %104, %61
  %63 = load i32, ptr %2, align 4, !tbaa !50
  %64 = icmp slt i32 %63, 2
  br i1 %64, label %65, label %107

65:                                               ; preds = %62
  %66 = load i32, ptr %2, align 4, !tbaa !50
  %67 = add nsw i32 %66, 1
  %68 = sub nsw i32 0, %67
  %69 = load i32, ptr %1, align 4, !tbaa !50
  %70 = add nsw i32 %69, 1
  %71 = ashr i32 %70, 1
  %72 = mul nsw i32 %68, %71
  store i32 %72, ptr %6, align 4, !tbaa !50
  %73 = load i32, ptr %6, align 4, !tbaa !50
  %74 = sitofp i32 %73 to double
  %75 = fdiv nsz double %74, 4.000000e+00
  %76 = call nsz double @llvm.exp2.f64(double %75)
  store double %76, ptr %5, align 8, !tbaa !97
  %77 = load i32, ptr %1, align 4, !tbaa !50
  %78 = and i32 %77, 1
  store i32 %78, ptr %7, align 4, !tbaa !50
  %79 = load double, ptr %5, align 8, !tbaa !97
  %80 = call nsz double @llvm.fmuladd.f64(double %79, double 0x4160000000000000, double 5.000000e-01)
  %81 = fptosi double %80 to i32
  %82 = load i32, ptr %2, align 4, !tbaa !50
  %83 = sext i32 %82 to i64
  %84 = getelementptr inbounds [2 x [2 x [16 x i32]]], ptr @is_table_lsf, i64 0, i64 %83
  %85 = load i32, ptr %7, align 4, !tbaa !50
  %86 = xor i32 %85, 1
  %87 = sext i32 %86 to i64
  %88 = getelementptr inbounds [2 x [16 x i32]], ptr %84, i64 0, i64 %87
  %89 = load i32, ptr %1, align 4, !tbaa !50
  %90 = sext i32 %89 to i64
  %91 = getelementptr inbounds [16 x i32], ptr %88, i64 0, i64 %90
  store i32 %81, ptr %91, align 4, !tbaa !50
  %92 = load i32, ptr %2, align 4, !tbaa !50
  %93 = sext i32 %92 to i64
  %94 = getelementptr inbounds [2 x [2 x [16 x i32]]], ptr @is_table_lsf, i64 0, i64 %93
  %95 = load i32, ptr %7, align 4, !tbaa !50
  %96 = sext i32 %95 to i64
  %97 = getelementptr inbounds [2 x [16 x i32]], ptr %94, i64 0, i64 %96
  %98 = load i32, ptr %1, align 4, !tbaa !50
  %99 = sext i32 %98 to i64
  %100 = getelementptr inbounds [16 x i32], ptr %97, i64 0, i64 %99
  store i32 8388608, ptr %100, align 4, !tbaa !50
  br label %101

101:                                              ; preds = %65
  br label %102

102:                                              ; preds = %101
  br label %103

103:                                              ; preds = %102
  br label %104

104:                                              ; preds = %103
  %105 = load i32, ptr %2, align 4, !tbaa !50
  %106 = add nsw i32 %105, 1
  store i32 %106, ptr %2, align 4, !tbaa !50
  br label %62, !llvm.loop !99

107:                                              ; preds = %62
  call void @llvm.lifetime.end.p0(i64 4, ptr %7) #13
  call void @llvm.lifetime.end.p0(i64 4, ptr %6) #13
  call void @llvm.lifetime.end.p0(i64 8, ptr %5) #13
  br label %108

108:                                              ; preds = %107
  %109 = load i32, ptr %1, align 4, !tbaa !50
  %110 = add nsw i32 %109, 1
  store i32 %110, ptr %1, align 4, !tbaa !50
  br label %58, !llvm.loop !100

111:                                              ; preds = %58
  call void @ff_mpa_synth_init_fixed()
  call void @ff_mpegaudiodec_common_init_static()
  call void @llvm.lifetime.end.p0(i64 4, ptr %2) #13
  call void @llvm.lifetime.end.p0(i64 4, ptr %1) #13
  ret void
}