; Function Attrs: cold nounwind optsize uwtable
define internal void @decode_init_static() #0 {
  br label %1

1:                                                ; preds = %0, %1
  %indvars.iv = phi i64 [ 0, %0 ], [ %indvars.iv.next, %1 ]
  %2 = shl nuw nsw i64 33554432, %indvars.iv
  %3 = trunc nuw nsw i64 %indvars.iv to i32
  %4 = shl nuw nsw i32 4, %3
  %5 = add nsw i32 %4, -1
  %6 = zext nneg i32 %5 to i64
  %7 = udiv i64 %2, %6
  %sext = shl i64 %7, 32
  %8 = ashr exact i64 %sext, 32
  %9 = lshr exact i64 %sext, 31
  %10 = trunc i64 %9 to i32
  %11 = getelementptr inbounds nuw [15 x [3 x i32]], ptr @scale_factor_mult, i64 0, i64 %indvars.iv
  store i32 %10, ptr %11, align 4, !tbaa !47
  %12 = mul nsw i64 %8, 13316085
  %13 = lshr i64 %12, 23
  %14 = trunc i64 %13 to i32
  %15 = getelementptr inbounds nuw i8, ptr %11, i64 4
  store i32 %14, ptr %15, align 4, !tbaa !47
  %16 = mul nsw i64 %8, 10568984
  %17 = lshr i64 %16, 23
  %18 = trunc i64 %17 to i32
  %19 = getelementptr inbounds nuw i8, ptr %11, i64 8
  store i32 %18, ptr %19, align 4, !tbaa !47
  %indvars.iv.next = add nuw nsw i64 %indvars.iv, 1
  %exitcond.not = icmp eq i64 %indvars.iv.next, 15
  br i1 %exitcond.not, label %20, label %1, !llvm.loop !84

20:                                               ; preds = %1
  tail call fastcc void @mpegaudio_tableinit() #15
  br label %.preheader

.preheader:                                       ; preds = %20, %38
  %indvars.iv33 = phi i64 [ 0, %20 ], [ %indvars.iv.next34, %38 ]
  %indvars.iv.next34 = add nuw nsw i64 %indvars.iv33, 1
  %21 = trunc nuw nsw i64 %indvars.iv.next34 to i32
  %22 = lshr i32 %21, 1
  %23 = and i64 %indvars.iv33, 1
  %24 = xor i64 %23, 1
  %25 = and i64 %indvars.iv33, 1
  br label %26

26:                                               ; preds = %.preheader, %26
  %27 = phi i1 [ true, %.preheader ], [ false, %26 ]
  %indvars.iv30 = phi i64 [ 0, %.preheader ], [ 1, %26 ]
  %28 = trunc nuw nsw i64 %indvars.iv30 to i32
  %29 = xor i32 %28, -1
  %30 = mul nsw i32 %22, %29
  %31 = sitofp i32 %30 to double
  %32 = fmul nsz double %31, 2.500000e-01
  %33 = tail call nsz double @llvm.exp2.f64(double %32)
  %34 = tail call nsz double @llvm.fmuladd.f64(double %33, double 0x4160000000000000, double 5.000000e-01)
  %35 = fptosi double %34 to i32
  %36 = getelementptr inbounds nuw [2 x [2 x [16 x i32]]], ptr @is_table_lsf, i64 0, i64 %indvars.iv30, i64 %24, i64 %indvars.iv33
  store i32 %35, ptr %36, align 4, !tbaa !47
  %37 = getelementptr inbounds nuw [2 x [2 x [16 x i32]]], ptr @is_table_lsf, i64 0, i64 %indvars.iv30, i64 %25, i64 %indvars.iv33
  store i32 8388608, ptr %37, align 4, !tbaa !47
  br i1 %27, label %26, label %38, !llvm.loop !85

38:                                               ; preds = %26
  %exitcond36.not = icmp eq i64 %indvars.iv.next34, 16
  br i1 %exitcond36.not, label %39, label %.preheader, !llvm.loop !86

39:                                               ; preds = %38
  tail call void @ff_mpa_synth_init_fixed() #14
  tail call void @ff_mpegaudiodec_common_init_static() #14
  ret void
}